target datalayout = "e-m:e-p270:32:32-p271:32:32-p272:64:64-i64:64-i128:128-f80:128-n8:16:32:64-S128"
target triple = "x86_64-pc-linux-gnu"

%struct.Vec_Int_t_ = type { i32, i32, ptr }

; Function Attrs: inlinehint nounwind uwtable
define internal i32 @Vec_IntEntry(ptr noundef %0, i32 noundef %1) #2 {
  %3 = alloca ptr, align 8
  %4 = alloca i32, align 4
  store ptr %0, ptr %3, align 8, !tbaa !41
  store i32 %1, ptr %4, align 4, !tbaa !8
  %5 = load ptr, ptr %3, align 8, !tbaa !41
  %6 = getelementptr inbounds nuw %struct.Vec_Int_t_, ptr %5, i32 0, i32 2
  %7 = load ptr, ptr %6, align 8, !tbaa !59
  %8 = load i32, ptr %4, align 4, !tbaa !8
  %9 = sext i32 %8 to i64
  %10 = getelementptr inbounds i32, ptr %7, i64 %9
  %11 = load i32, ptr %10, align 4, !tbaa !8
  ret i32 %11
}

; Function Attrs: inlinehint nounwind uwtable
define internal i32 @Vec_IntSize(ptr noundef %0) #2 {
  %2 = alloca ptr, align 8
  store ptr %0, ptr %2, align 8, !tbaa !41
  %3 = load ptr, ptr %2, align 8, !tbaa !41
  %4 = getelementptr inbounds nuw %struct.Vec_Int_t_, ptr %3, i32 0, i32 1
  %5 = load i32, ptr %4, align 4, !tbaa !57
  ret i32 %5
}

; Function Attrs: nounwind uwtable
define i32 @Supp_ArrayWeight(ptr noundef %0, ptr noundef %1) #0 {
  %3 = alloca i32, align 4
  %4 = alloca ptr, align 8
  %5 = alloca ptr, align 8
  %6 = alloca i32, align 4
  %7 = alloca i32, align 4
  %8 = alloca i32, align 4
  %9 = alloca i32, align 4
  store ptr %0, ptr %4, align 8, !tbaa !41
  store ptr %1, ptr %5, align 8, !tbaa !41
  call void @llvm.lifetime.start.p0(i64 4, ptr %6) #15
  call void @llvm.lifetime.start.p0(i64 4, ptr %7) #15
  call void @llvm.lifetime.start.p0(i64 4, ptr %8) #15
  store i32 0, ptr %8, align 4, !tbaa !8
  %10 = load ptr, ptr %5, align 8, !tbaa !41
  %11 = icmp ne ptr %10, null
  br i1 %11, label %15, label %12

12:                                               ; preds = %2
  %13 = load ptr, ptr %4, align 8, !tbaa !41
  %14 = call i32 @Vec_IntSize(ptr noundef %13)
  store i32 %14, ptr %3, align 4
  store i32 1, ptr %9, align 4
  br label %38

15:                                               ; preds = %2
  store i32 0, ptr %6, align 4, !tbaa !8
  br label %16

16:                                               ; preds = %33, %15
  %17 = load i32, ptr %6, align 4, !tbaa !8
  %18 = load ptr, ptr %4, align 8, !tbaa !41
  %19 = call i32 @Vec_IntSize(ptr noundef %18)
  %20 = icmp slt i32 %17, %19
  br i1 %20, label %21, label %25

21:                                               ; preds = %16
  %22 = load ptr, ptr %4, align 8, !tbaa !41
  %23 = load i32, ptr %6, align 4, !tbaa !8
  %24 = call i32 @Vec_IntEntry(ptr noundef %22, i32 noundef %23)
  store i32 %24, ptr %7, align 4, !tbaa !8
  br label %25

25:                                               ; preds = %21, %16
  %26 = phi i1 [ false, %16 ], [ true, %21 ]
  br i1 %26, label %27, label %36

27:                                               ; preds = %25
  %28 = load ptr, ptr %5, align 8, !tbaa !41
  %29 = load i32, ptr %7, align 4, !tbaa !8
  %30 = call i32 @Vec_IntEntry(ptr noundef %28, i32 noundef %29)
  %31 = load i32, ptr %8, align 4, !tbaa !8
  %32 = add nsw i32 %31, %30
  store i32 %32, ptr %8, align 4, !tbaa !8
  br label %33

33:                                               ; preds = %27
  %34 = load i32, ptr %6, align 4, !tbaa !8
  %35 = add nsw i32 %34, 1
  store i32 %35, ptr %6, align 4, !tbaa !8
  br label %16, !llvm.loop !106

36:                                               ; preds = %25
  %37 = load i32, ptr %8, align 4, !tbaa !8
  store i32 %37, ptr %3, align 4
  store i32 1, ptr %9, align 4
  br label %38

38:                                               ; preds = %36, %12
  call void @llvm.lifetime.end.p0(i64 4, ptr %8) #15
  call void @llvm.lifetime.end.p0(i64 4, ptr %7) #15
  call void @llvm.lifetime.end.p0(i64 4, ptr %6) #15
  %39 = load i32, ptr %3, align 4
  ret i32 %39
}