; Function Attrs: nofree norecurse nosync nounwind memory(read, inaccessiblemem: none) uwtable
define i32 @Supp_ArrayWeight(ptr noundef readonly captures(none) %0, ptr noundef readonly %1) local_unnamed_addr #2 {
  %.not = icmp eq ptr %1, null
  %3 = getelementptr i8, ptr %0, i64 4
  %.val14 = load i32, ptr %3, align 4, !tbaa !30
  br i1 %.not, label %.critedge, label %.preheader

.preheader:                                       ; preds = %2
  %4 = icmp sgt i32 %.val14, 0
  br i1 %4, label %.lr.ph, label %.critedge

.lr.ph:                                           ; preds = %.preheader
  %5 = getelementptr i8, ptr %0, i64 8
  %.val16 = load ptr, ptr %5, align 8, !tbaa !34
  %6 = getelementptr i8, ptr %1, i64 8
  %.val15 = load ptr, ptr %6, align 8, !tbaa !34
  %wide.trip.count = zext nneg i32 %.val14 to i64
  br label %7

7:                                                ; preds = %.lr.ph, %7
  %indvars.iv = phi i64 [ 0, %.lr.ph ], [ %indvars.iv.next, %7 ]
  %.018 = phi i32 [ 0, %.lr.ph ], [ %13, %7 ]
  %8 = getelementptr inbounds nuw i32, ptr %.val16, i64 %indvars.iv
  %9 = load i32, ptr %8, align 4, !tbaa !35
  %10 = sext i32 %9 to i64
  %11 = getelementptr inbounds i32, ptr %.val15, i64 %10
  %12 = load i32, ptr %11, align 4, !tbaa !35
  %13 = add nsw i32 %12, %.018
  %indvars.iv.next = add nuw nsw i64 %indvars.iv, 1
  %exitcond.not = icmp eq i64 %indvars.iv.next, %wide.trip.count
  br i1 %exitcond.not, label %.critedge, label %7, !llvm.loop !97

.critedge:                                        ; preds = %7, %2, %.preheader
  %.011 = phi i32 [ 0, %.preheader ], [ %.val14, %2 ], [ %13, %7 ]
  ret i32 %.011
}